target datalayout = "e-m:e-p270:32:32-p271:32:32-p272:64:64-i64:64-i128:128-f80:128-n8:16:32:64-S128"
target triple = "x86_64-pc-linux-gnu"

%"class.icu_77::CollationIterator::CEBuffer" = type { i32, %"class.icu_77::MaybeStackArray.0" }
%"class.icu_77::MaybeStackArray.0" = type { ptr, i32, i8, [40 x i64] }
%"class.icu_77::CollationIterator" = type <{ %"class.icu_77::UObject", ptr, ptr, %"class.icu_77::CollationIterator::CEBuffer", i32, [4 x i8], ptr, i32, i8, [3 x i8] }>
%"class.icu_77::UObject" = type { ptr }

; Function Attrs: inlinehint mustprogress nounwind uwtable
define internal noundef signext i8 @_ZL9U_SUCCESS10UErrorCode(i32 noundef %0) #2 {
  %2 = alloca i32, align 4
  store i32 %0, ptr %2, align 4, !tbaa !15
  %3 = load i32, ptr %2, align 4, !tbaa !15
  %4 = icmp sle i32 %3, 0
  %5 = zext i1 %4 to i8
  ret i8 %5
}

; Function Attrs: mustprogress uwtable
define noundef i32 @_ZN6icu_7717CollationIterator8fetchCEsER10UErrorCode(ptr noundef nonnull align 8 dereferenceable(389) %0, ptr noundef nonnull align 4 dereferenceable(4) %1) #1 align 2 {
  %3 = alloca ptr, align 8
  %4 = alloca ptr, align 8
  store ptr %0, ptr %3, align 8, !tbaa !37
  store ptr %1, ptr %4, align 8, !tbaa !22
  %5 = load ptr, ptr %3, align 8
  br label %6

6:                                                ; preds = %17, %2
  %7 = load ptr, ptr %4, align 8, !tbaa !22
  %8 = load i32, ptr %7, align 4, !tbaa !15
  %9 = call noundef signext i8 @_ZL9U_SUCCESS10UErrorCode(i32 noundef %8)
  %10 = icmp ne i8 %9, 0
  br i1 %10, label %11, label %15

11:                                               ; preds = %6
  %12 = load ptr, ptr %4, align 8, !tbaa !22
  %13 = call noundef i64 @_ZN6icu_7717CollationIterator6nextCEER10UErrorCode(ptr noundef nonnull align 8 dereferenceable(389) %5, ptr noundef nonnull align 4 dereferenceable(4) %12)
  %14 = icmp ne i64 %13, 4311744768
  br label %15

15:                                               ; preds = %11, %6
  %16 = phi i1 [ false, %6 ], [ %14, %11 ]
  br i1 %16, label %17, label %22

17:                                               ; preds = %15
  %18 = getelementptr inbounds nuw %"class.icu_77::CollationIterator", ptr %5, i32 0, i32 3
  %19 = getelementptr inbounds nuw %"class.icu_77::CollationIterator::CEBuffer", ptr %18, i32 0, i32 0
  %20 = load i32, ptr %19, align 8, !tbaa !52
  %21 = getelementptr inbounds nuw %"class.icu_77::CollationIterator", ptr %5, i32 0, i32 4
  store i32 %20, ptr %21, align 8, !tbaa !48
  br label %6, !llvm.loop !69

22:                                               ; preds = %15
  %23 = getelementptr inbounds nuw %"class.icu_77::CollationIterator", ptr %5, i32 0, i32 3
  %24 = getelementptr inbounds nuw %"class.icu_77::CollationIterator::CEBuffer", ptr %23, i32 0, i32 0
  %25 = load i32, ptr %24, align 8, !tbaa !52
  ret i32 %25
}