; Function Attrs: mustprogress uwtable
define noundef i32 @_ZN6icu_7717CollationIterator8fetchCEsER10UErrorCode(ptr noundef nonnull align 8 dereferenceable(389) %0, ptr noundef nonnull align 4 dereferenceable(4) %1) local_unnamed_addr #1 align 2 {
  %3 = load i32, ptr %1, align 4, !tbaa !13
  %4 = icmp sgt i32 %3, 0
  br i1 %4, label %.critedge, label %.lr.ph

.lr.ph:                                           ; preds = %2
  %5 = getelementptr inbounds nuw i8, ptr %0, i64 24
  %6 = getelementptr inbounds nuw i8, ptr %0, i64 368
  br label %7

7:                                                ; preds = %.lr.ph, %9
  %8 = tail call noundef i64 @_ZN6icu_7717CollationIterator6nextCEER10UErrorCode(ptr noundef nonnull align 8 dereferenceable(389) %0, ptr noundef nonnull align 4 dereferenceable(4) %1)
  %.not3 = icmp eq i64 %8, 4311744768
  br i1 %.not3, label %.critedge, label %9

9:                                                ; preds = %7
  %10 = load i32, ptr %5, align 8, !tbaa !37
  store i32 %10, ptr %6, align 8, !tbaa !33
  %11 = load i32, ptr %1, align 4, !tbaa !13
  %12 = icmp sgt i32 %11, 0
  br i1 %12, label %.critedge, label %7, !llvm.loop !51

.critedge:                                        ; preds = %7, %9, %2
  %13 = getelementptr inbounds nuw i8, ptr %0, i64 24
  %14 = load i32, ptr %13, align 8, !tbaa !37
  ret i32 %14
}